target datalayout = "e-m:e-p270:32:32-p271:32:32-p272:64:64-i64:64-i128:128-f80:128-n8:16:32:64-S128"
target triple = "x86_64-pc-linux-gnu"

%struct.Vec_Int_t_ = type { i32, i32, ptr }

@.str.12 = private unnamed_addr constant [4 x i8] c" 1\0A\00", align 1
@.str.38 = private unnamed_addr constant [4 x i8] c" 0\0A\00", align 1

; Function Attrs: nounwind uwtable
define internal i32 @Vec_IntEntry(ptr noundef %0, i32 noundef %1) #0 {
  %3 = alloca ptr, align 8
  %4 = alloca i32, align 4
  store ptr %0, ptr %3, align 8
  store i32 %1, ptr %4, align 4
  %5 = load ptr, ptr %3, align 8
  %6 = getelementptr inbounds %struct.Vec_Int_t_, ptr %5, i32 0, i32 2
  %7 = load ptr, ptr %6, align 8
  %8 = load i32, ptr %4, align 4
  %9 = sext i32 %8 to i64
  %10 = getelementptr inbounds i32, ptr %7, i64 %9
  %11 = load i32, ptr %10, align 4
  ret i32 %11
}

; Function Attrs: nounwind uwtable
define internal i32 @Vec_IntSize(ptr noundef %0) #0 {
  %2 = alloca ptr, align 8
  store ptr %0, ptr %2, align 8
  %3 = load ptr, ptr %2, align 8
  %4 = getelementptr inbounds %struct.Vec_Int_t_, ptr %3, i32 0, i32 1
  %5 = load i32, ptr %4, align 4
  ret i32 %5
}

; Function Attrs: nounwind uwtable
define ptr @Io_NtkDeriveSop(ptr noundef %0, i64 noundef %1, i32 noundef %2, ptr noundef %3) #0 {
  %5 = alloca ptr, align 8
  %6 = alloca ptr, align 8
  %7 = alloca i64, align 8
  %8 = alloca i32, align 4
  %9 = alloca ptr, align 8
  %10 = alloca ptr, align 8
  %11 = alloca i32, align 4
  %12 = alloca ptr, align 8
  %13 = alloca ptr, align 8
  store ptr %0, ptr %6, align 8
  store i64 %1, ptr %7, align 8
  store i32 %2, ptr %8, align 4
  store ptr %3, ptr %9, align 8
  %14 = load i32, ptr %8, align 4
  %15 = load ptr, ptr %9, align 8
  %16 = call i32 @Kit_TruthIsop(ptr noundef %7, i32 noundef %14, ptr noundef %15, i32 noundef 1)
  store i32 %16, ptr %11, align 4
  %17 = load ptr, ptr %9, align 8
  %18 = call i32 @Vec_IntSize(ptr noundef %17)
  %19 = icmp eq i32 %18, 0
  br i1 %19, label %28, label %20

20:                                               ; preds = %4
  %21 = load ptr, ptr %9, align 8
  %22 = call i32 @Vec_IntSize(ptr noundef %21)
  %23 = icmp eq i32 %22, 1
  br i1 %23, label %24, label %38

24:                                               ; preds = %20
  %25 = load ptr, ptr %9, align 8
  %26 = call i32 @Vec_IntEntry(ptr noundef %25, i32 noundef 0)
  %27 = icmp eq i32 %26, 0
  br i1 %27, label %28, label %38

28:                                               ; preds = %24, %4
  store ptr @.str.38, ptr %12, align 8
  store ptr @.str.12, ptr %13, align 8
  %29 = load ptr, ptr %9, align 8
  %30 = call i32 @Vec_IntSize(ptr noundef %29)
  %31 = icmp eq i32 %30, 0
  br i1 %31, label %32, label %34

32:                                               ; preds = %28
  %33 = load ptr, ptr %12, align 8
  br label %36

34:                                               ; preds = %28
  %35 = load ptr, ptr %13, align 8
  br label %36

36:                                               ; preds = %34, %32
  %37 = phi ptr [ %33, %32 ], [ %35, %34 ]
  store ptr %37, ptr %5, align 8
  br label %49

38:                                               ; preds = %24, %20
  %39 = load ptr, ptr %6, align 8
  %40 = load i32, ptr %8, align 4
  %41 = load ptr, ptr %9, align 8
  %42 = call ptr @Abc_SopCreateFromIsop(ptr noundef %39, i32 noundef %40, ptr noundef %41)
  store ptr %42, ptr %10, align 8
  %43 = load i32, ptr %11, align 4
  %44 = icmp ne i32 %43, 0
  br i1 %44, label %45, label %47

45:                                               ; preds = %38
  %46 = load ptr, ptr %10, align 8
  call void @Abc_SopComplement(ptr noundef %46)
  br label %47

47:                                               ; preds = %45, %38
  %48 = load ptr, ptr %10, align 8
  store ptr %48, ptr %5, align 8
  br label %49

49:                                               ; preds = %47, %36
  %50 = load ptr, ptr %5, align 8
  ret ptr %50
}